target datalayout = "e-m:e-p270:32:32-p271:32:32-p272:64:64-i64:64-i128:128-f80:128-n8:16:32:64-S128"
target triple = "x86_64-pc-linux-gnu"

; Function Attrs: nounwind uwtable
define i32 @H5VM_array_calc_pre(i64 noundef %0, i32 noundef %1, ptr noundef %2, ptr noundef %3) #0 {
  %5 = alloca i64, align 8
  %6 = alloca i32, align 4
  %7 = alloca ptr, align 8
  %8 = alloca ptr, align 8
  %9 = alloca i32, align 4
  store i64 %0, ptr %5, align 8
  store i32 %1, ptr %6, align 4
  store ptr %2, ptr %7, align 8
  store ptr %3, ptr %8, align 8
  store i32 0, ptr %9, align 4
  br label %10

10:                                               ; preds = %33, %4
  %11 = load i32, ptr %9, align 4
  %12 = load i32, ptr %6, align 4
  %13 = icmp ult i32 %11, %12
  br i1 %13, label %14, label %36

14:                                               ; preds = %10
  %15 = load i64, ptr %5, align 8
  %16 = load ptr, ptr %7, align 8
  %17 = load i32, ptr %9, align 4
  %18 = zext i32 %17 to i64
  %19 = getelementptr inbounds i64, ptr %16, i64 %18
  %20 = load i64, ptr %19, align 8
  %21 = udiv i64 %15, %20
  %22 = load ptr, ptr %8, align 8
  %23 = load i32, ptr %9, align 4
  %24 = zext i32 %23 to i64
  %25 = getelementptr inbounds i64, ptr %22, i64 %24
  store i64 %21, ptr %25, align 8
  %26 = load ptr, ptr %7, align 8
  %27 = load i32, ptr %9, align 4
  %28 = zext i32 %27 to i64
  %29 = getelementptr inbounds i64, ptr %26, i64 %28
  %30 = load i64, ptr %29, align 8
  %31 = load i64, ptr %5, align 8
  %32 = urem i64 %31, %30
  store i64 %32, ptr %5, align 8
  br label %33

33:                                               ; preds = %14
  %34 = load i32, ptr %9, align 4
  %35 = add i32 %34, 1
  store i32 %35, ptr %9, align 4
  br label %10

36:                                               ; preds = %10
  ret i32 0
}