; Function Attrs: nofree norecurse nosync nounwind memory(argmem: readwrite) uwtable
define noundef i32 @H5VM_array_calc_pre(i64 noundef %0, i32 noundef %1, ptr nocapture noundef readonly %2, ptr nocapture noundef writeonly %3) local_unnamed_addr #5 {
  %.not = icmp eq i32 %1, 0
  br i1 %.not, label %._crit_edge, label %.lr.ph.preheader

.lr.ph.preheader:                                 ; preds = %4
  %wide.trip.count = zext i32 %1 to i64
  br label %.lr.ph

.lr.ph:                                           ; preds = %.lr.ph.preheader, %.lr.ph
  %indvars.iv = phi i64 [ 0, %.lr.ph.preheader ], [ %indvars.iv.next, %.lr.ph ]
  %.01011 = phi i64 [ %0, %.lr.ph.preheader ], [ %10, %.lr.ph ]
  %5 = getelementptr inbounds i64, ptr %2, i64 %indvars.iv
  %6 = load i64, ptr %5, align 8
  %7 = udiv i64 %.01011, %6
  %8 = getelementptr inbounds i64, ptr %3, i64 %indvars.iv
  store i64 %7, ptr %8, align 8
  %9 = load i64, ptr %5, align 8
  %10 = urem i64 %.01011, %9
  %indvars.iv.next = add nuw nsw i64 %indvars.iv, 1
  %exitcond.not = icmp eq i64 %indvars.iv.next, %wide.trip.count
  br i1 %exitcond.not, label %._crit_edge, label %.lr.ph

._crit_edge:                                      ; preds = %.lr.ph, %4
  ret i32 0
}